target datalayout = "e-m:e-p270:32:32-p271:32:32-p272:64:64-i64:64-i128:128-f80:128-n8:16:32:64-S128"
target triple = "x86_64-pc-linux-gnu"

%struct._generic_N_Vector = type { ptr, ptr, ptr }
%struct._N_VectorContent_Serial = type { i64, i32, ptr }

; Function Attrs: nounwind uwtable
define internal i32 @rhsQS(i32 noundef %0, double noundef %1, ptr noundef %2, ptr noundef %3, ptr noundef %4, ptr noundef %5, ptr noundef %6, ptr noundef %7, ptr noundef %8, ptr noundef %9, ptr noundef %10, ptr noundef %11) #0 {
  %13 = alloca i32, align 4
  %14 = alloca double, align 8
  %15 = alloca ptr, align 8
  %16 = alloca ptr, align 8
  %17 = alloca ptr, align 8
  %18 = alloca ptr, align 8
  %19 = alloca ptr, align 8
  %20 = alloca ptr, align 8
  %21 = alloca ptr, align 8
  %22 = alloca ptr, align 8
  %23 = alloca ptr, align 8
  %24 = alloca ptr, align 8
  %25 = alloca double, align 8
  %26 = alloca double, align 8
  %27 = alloca double, align 8
  %28 = alloca double, align 8
  %29 = alloca double, align 8
  %30 = alloca double, align 8
  store i32 %0, ptr %13, align 4, !tbaa !4
  store double %1, ptr %14, align 8, !tbaa !14
  store ptr %2, ptr %15, align 8, !tbaa !16
  store ptr %3, ptr %16, align 8, !tbaa !16
  store ptr %4, ptr %17, align 8, !tbaa !25
  store ptr %5, ptr %18, align 8, !tbaa !25
  store ptr %6, ptr %19, align 8, !tbaa !16
  store ptr %7, ptr %20, align 8, !tbaa !25
  store ptr %8, ptr %21, align 8, !tbaa !13
  store ptr %9, ptr %22, align 8, !tbaa !16
  store ptr %10, ptr %23, align 8, !tbaa !16
  store ptr %11, ptr %24, align 8, !tbaa !16
  call void @llvm.lifetime.start.p0(i64 8, ptr %25) #6
  call void @llvm.lifetime.start.p0(i64 8, ptr %26) #6
  call void @llvm.lifetime.start.p0(i64 8, ptr %27) #6
  call void @llvm.lifetime.start.p0(i64 8, ptr %28) #6
  call void @llvm.lifetime.start.p0(i64 8, ptr %29) #6
  call void @llvm.lifetime.start.p0(i64 8, ptr %30) #6
  %31 = load ptr, ptr %15, align 8, !tbaa !16
  %32 = getelementptr inbounds nuw %struct._generic_N_Vector, ptr %31, i32 0, i32 0
  %33 = load ptr, ptr %32, align 8, !tbaa !18
  %34 = getelementptr inbounds nuw %struct._N_VectorContent_Serial, ptr %33, i32 0, i32 2
  %35 = load ptr, ptr %34, align 8, !tbaa !21
  %36 = getelementptr inbounds double, ptr %35, i64 0
  %37 = load double, ptr %36, align 8, !tbaa !14
  store double %37, ptr %25, align 8, !tbaa !14
  %38 = load ptr, ptr %15, align 8, !tbaa !16
  %39 = getelementptr inbounds nuw %struct._generic_N_Vector, ptr %38, i32 0, i32 0
  %40 = load ptr, ptr %39, align 8, !tbaa !18
  %41 = getelementptr inbounds nuw %struct._N_VectorContent_Serial, ptr %40, i32 0, i32 2
  %42 = load ptr, ptr %41, align 8, !tbaa !21
  %43 = getelementptr inbounds double, ptr %42, i64 1
  %44 = load double, ptr %43, align 8, !tbaa !14
  store double %44, ptr %26, align 8, !tbaa !14
  %45 = load ptr, ptr %15, align 8, !tbaa !16
  %46 = getelementptr inbounds nuw %struct._generic_N_Vector, ptr %45, i32 0, i32 0
  %47 = load ptr, ptr %46, align 8, !tbaa !18
  %48 = getelementptr inbounds nuw %struct._N_VectorContent_Serial, ptr %47, i32 0, i32 2
  %49 = load ptr, ptr %48, align 8, !tbaa !21
  %50 = getelementptr inbounds double, ptr %49, i64 2
  %51 = load double, ptr %50, align 8, !tbaa !14
  store double %51, ptr %27, align 8, !tbaa !14
  %52 = load ptr, ptr %17, align 8, !tbaa !25
  %53 = getelementptr inbounds ptr, ptr %52, i64 0
  %54 = load ptr, ptr %53, align 8, !tbaa !16
  %55 = getelementptr inbounds nuw %struct._generic_N_Vector, ptr %54, i32 0, i32 0
  %56 = load ptr, ptr %55, align 8, !tbaa !18
  %57 = getelementptr inbounds nuw %struct._N_VectorContent_Serial, ptr %56, i32 0, i32 2
  %58 = load ptr, ptr %57, align 8, !tbaa !21
  %59 = getelementptr inbounds double, ptr %58, i64 0
  %60 = load double, ptr %59, align 8, !tbaa !14
  store double %60, ptr %28, align 8, !tbaa !14
  %61 = load ptr, ptr %17, align 8, !tbaa !25
  %62 = getelementptr inbounds ptr, ptr %61, i64 0
  %63 = load ptr, ptr %62, align 8, !tbaa !16
  %64 = getelementptr inbounds nuw %struct._generic_N_Vector, ptr %63, i32 0, i32 0
  %65 = load ptr, ptr %64, align 8, !tbaa !18
  %66 = getelementptr inbounds nuw %struct._N_VectorContent_Serial, ptr %65, i32 0, i32 2
  %67 = load ptr, ptr %66, align 8, !tbaa !21
  %68 = getelementptr inbounds double, ptr %67, i64 1
  %69 = load double, ptr %68, align 8, !tbaa !14
  store double %69, ptr %29, align 8, !tbaa !14
  %70 = load ptr, ptr %17, align 8, !tbaa !25
  %71 = getelementptr inbounds ptr, ptr %70, i64 0
  %72 = load ptr, ptr %71, align 8, !tbaa !16
  %73 = getelementptr inbounds nuw %struct._generic_N_Vector, ptr %72, i32 0, i32 0
  %74 = load ptr, ptr %73, align 8, !tbaa !18
  %75 = getelementptr inbounds nuw %struct._N_VectorContent_Serial, ptr %74, i32 0, i32 2
  %76 = load ptr, ptr %75, align 8, !tbaa !21
  %77 = getelementptr inbounds double, ptr %76, i64 2
  %78 = load double, ptr %77, align 8, !tbaa !14
  store double %78, ptr %30, align 8, !tbaa !14
  %79 = load double, ptr %25, align 8, !tbaa !14
  %80 = load double, ptr %28, align 8, !tbaa !14
  %81 = load double, ptr %26, align 8, !tbaa !14
  %82 = load double, ptr %29, align 8, !tbaa !14
  %83 = fmul double %81, %82
  %84 = call double @llvm.fmuladd.f64(double %79, double %80, double %83)
  %85 = load double, ptr %27, align 8, !tbaa !14
  %86 = load double, ptr %30, align 8, !tbaa !14
  %87 = call double @llvm.fmuladd.f64(double %85, double %86, double %84)
  %88 = load ptr, ptr %20, align 8, !tbaa !25
  %89 = getelementptr inbounds ptr, ptr %88, i64 0
  %90 = load ptr, ptr %89, align 8, !tbaa !16
  %91 = getelementptr inbounds nuw %struct._generic_N_Vector, ptr %90, i32 0, i32 0
  %92 = load ptr, ptr %91, align 8, !tbaa !18
  %93 = getelementptr inbounds nuw %struct._N_VectorContent_Serial, ptr %92, i32 0, i32 2
  %94 = load ptr, ptr %93, align 8, !tbaa !21
  %95 = getelementptr inbounds double, ptr %94, i64 0
  store double %87, ptr %95, align 8, !tbaa !14
  %96 = load ptr, ptr %17, align 8, !tbaa !25
  %97 = getelementptr inbounds ptr, ptr %96, i64 1
  %98 = load ptr, ptr %97, align 8, !tbaa !16
  %99 = getelementptr inbounds nuw %struct._generic_N_Vector, ptr %98, i32 0, i32 0
  %100 = load ptr, ptr %99, align 8, !tbaa !18
  %101 = getelementptr inbounds nuw %struct._N_VectorContent_Serial, ptr %100, i32 0, i32 2
  %102 = load ptr, ptr %101, align 8, !tbaa !21
  %103 = getelementptr inbounds double, ptr %102, i64 0
  %104 = load double, ptr %103, align 8, !tbaa !14
  store double %104, ptr %28, align 8, !tbaa !14
  %105 = load ptr, ptr %17, align 8, !tbaa !25
  %106 = getelementptr inbounds ptr, ptr %105, i64 1
  %107 = load ptr, ptr %106, align 8, !tbaa !16
  %108 = getelementptr inbounds nuw %struct._generic_N_Vector, ptr %107, i32 0, i32 0
  %109 = load ptr, ptr %108, align 8, !tbaa !18
  %110 = getelementptr inbounds nuw %struct._N_VectorContent_Serial, ptr %109, i32 0, i32 2
  %111 = load ptr, ptr %110, align 8, !tbaa !21
  %112 = getelementptr inbounds double, ptr %111, i64 1
  %113 = load double, ptr %112, align 8, !tbaa !14
  store double %113, ptr %29, align 8, !tbaa !14
  %114 = load ptr, ptr %17, align 8, !tbaa !25
  %115 = getelementptr inbounds ptr, ptr %114, i64 1
  %116 = load ptr, ptr %115, align 8, !tbaa !16
  %117 = getelementptr inbounds nuw %struct._generic_N_Vector, ptr %116, i32 0, i32 0
  %118 = load ptr, ptr %117, align 8, !tbaa !18
  %119 = getelementptr inbounds nuw %struct._N_VectorContent_Serial, ptr %118, i32 0, i32 2
  %120 = load ptr, ptr %119, align 8, !tbaa !21
  %121 = getelementptr inbounds double, ptr %120, i64 2
  %122 = load double, ptr %121, align 8, !tbaa !14
  store double %122, ptr %30, align 8, !tbaa !14
  %123 = load double, ptr %25, align 8, !tbaa !14
  %124 = load double, ptr %28, align 8, !tbaa !14
  %125 = load double, ptr %26, align 8, !tbaa !14
  %126 = load double, ptr %29, align 8, !tbaa !14
  %127 = fmul double %125, %126
  %128 = call double @llvm.fmuladd.f64(double %123, double %124, double %127)
  %129 = load double, ptr %27, align 8, !tbaa !14
  %130 = load double, ptr %30, align 8, !tbaa !14
  %131 = call double @llvm.fmuladd.f64(double %129, double %130, double %128)
  %132 = load ptr, ptr %20, align 8, !tbaa !25
  %133 = getelementptr inbounds ptr, ptr %132, i64 1
  %134 = load ptr, ptr %133, align 8, !tbaa !16
  %135 = getelementptr inbounds nuw %struct._generic_N_Vector, ptr %134, i32 0, i32 0
  %136 = load ptr, ptr %135, align 8, !tbaa !18
  %137 = getelementptr inbounds nuw %struct._N_VectorContent_Serial, ptr %136, i32 0, i32 2
  %138 = load ptr, ptr %137, align 8, !tbaa !21
  %139 = getelementptr inbounds double, ptr %138, i64 0
  store double %131, ptr %139, align 8, !tbaa !14
  call void @llvm.lifetime.end.p0(i64 8, ptr %30) #6
  call void @llvm.lifetime.end.p0(i64 8, ptr %29) #6
  call void @llvm.lifetime.end.p0(i64 8, ptr %28) #6
  call void @llvm.lifetime.end.p0(i64 8, ptr %27) #6
  call void @llvm.lifetime.end.p0(i64 8, ptr %26) #6
  call void @llvm.lifetime.end.p0(i64 8, ptr %25) #6
  ret i32 0
}