; Function Attrs: mustprogress nofree norecurse nosync nounwind willreturn memory(readwrite, inaccessiblemem: none) uwtable
define internal noundef i32 @rhsQS(i32 %0, double %1, ptr noundef readonly captures(none) %2, ptr readnone captures(none) %3, ptr noundef readonly captures(none) %4, ptr readnone captures(none) %5, ptr readnone captures(none) %6, ptr noundef readonly captures(none) %7, ptr readnone captures(none) %8, ptr readnone captures(none) %9, ptr readnone captures(none) %10, ptr readnone captures(none) %11) #5 {
  %13 = load ptr, ptr %2, align 8, !tbaa !11
  %14 = getelementptr inbounds nuw i8, ptr %13, i64 16
  %15 = load ptr, ptr %14, align 8, !tbaa !14
  %16 = load double, ptr %15, align 8, !tbaa !9
  %17 = getelementptr inbounds nuw i8, ptr %15, i64 8
  %18 = load double, ptr %17, align 8, !tbaa !9
  %19 = getelementptr inbounds nuw i8, ptr %15, i64 16
  %20 = load double, ptr %19, align 8, !tbaa !9
  %21 = load ptr, ptr %4, align 8, !tbaa !19
  %22 = load ptr, ptr %21, align 8, !tbaa !11
  %23 = getelementptr inbounds nuw i8, ptr %22, i64 16
  %24 = load ptr, ptr %23, align 8, !tbaa !14
  %25 = load double, ptr %24, align 8, !tbaa !9
  %26 = getelementptr inbounds nuw i8, ptr %24, i64 8
  %27 = load double, ptr %26, align 8, !tbaa !9
  %28 = getelementptr inbounds nuw i8, ptr %24, i64 16
  %29 = load double, ptr %28, align 8, !tbaa !9
  %30 = fmul double %18, %27
  %31 = tail call double @llvm.fmuladd.f64(double %16, double %25, double %30)
  %32 = tail call double @llvm.fmuladd.f64(double %20, double %29, double %31)
  %33 = load ptr, ptr %7, align 8, !tbaa !19
  %34 = load ptr, ptr %33, align 8, !tbaa !11
  %35 = getelementptr inbounds nuw i8, ptr %34, i64 16
  %36 = load ptr, ptr %35, align 8, !tbaa !14
  store double %32, ptr %36, align 8, !tbaa !9
  %37 = getelementptr inbounds nuw i8, ptr %4, i64 8
  %38 = load ptr, ptr %37, align 8, !tbaa !19
  %39 = load ptr, ptr %38, align 8, !tbaa !11
  %40 = getelementptr inbounds nuw i8, ptr %39, i64 16
  %41 = load ptr, ptr %40, align 8, !tbaa !14
  %42 = load double, ptr %41, align 8, !tbaa !9
  %43 = getelementptr inbounds nuw i8, ptr %41, i64 8
  %44 = load double, ptr %43, align 8, !tbaa !9
  %45 = getelementptr inbounds nuw i8, ptr %41, i64 16
  %46 = load double, ptr %45, align 8, !tbaa !9
  %47 = fmul double %18, %44
  %48 = tail call double @llvm.fmuladd.f64(double %16, double %42, double %47)
  %49 = tail call double @llvm.fmuladd.f64(double %20, double %46, double %48)
  %50 = getelementptr inbounds nuw i8, ptr %7, i64 8
  %51 = load ptr, ptr %50, align 8, !tbaa !19
  %52 = load ptr, ptr %51, align 8, !tbaa !11
  %53 = getelementptr inbounds nuw i8, ptr %52, i64 16
  %54 = load ptr, ptr %53, align 8, !tbaa !14
  store double %49, ptr %54, align 8, !tbaa !9
  ret i32 0
}